target datalayout = "e-m:e-p270:32:32-p271:32:32-p272:64:64-i64:64-i128:128-f80:128-n8:16:32:64-S128"
target triple = "x86_64-unknown-linux-gnu"

%"class.icu_75::RuleBasedCollator" = type <{ %"class.icu_75::Collator", ptr, ptr, ptr, ptr, %"class.icu_75::Locale", i32, i8, [3 x i8] }>
%"class.icu_75::Collator" = type { %"class.icu_75::UObject" }
%"class.icu_75::UObject" = type { ptr }
%"class.icu_75::Locale" = type <{ %"class.icu_75::UObject", [12 x i8], [6 x i8], [4 x i8], [2 x i8], i32, [4 x i8], ptr, [157 x i8], [3 x i8], ptr, i8, [7 x i8] }>
%"struct.icu_75::CollationTailoring" = type { %"class.icu_75::SharedObject", ptr, ptr, %"class.icu_75::UnicodeString", %"class.icu_75::Locale", [4 x i8], ptr, ptr, ptr, ptr, ptr, ptr, ptr, %"struct.icu_75::UInitOnce" }
%"class.icu_75::SharedObject" = type { %"class.icu_75::UObject", i32, %"struct.std::atomic", ptr }
%"struct.std::atomic" = type { %"struct.std::__atomic_base" }
%"struct.std::__atomic_base" = type { i32 }
%"class.icu_75::UnicodeString" = type { %"class.icu_75::Replaceable", %"union.icu_75::UnicodeString::StackBufferOrFields" }
%"class.icu_75::Replaceable" = type { %"class.icu_75::UObject" }
%"union.icu_75::UnicodeString::StackBufferOrFields" = type { %struct.anon.1, [32 x i8] }
%struct.anon.1 = type { i16, i32, i32, ptr }
%"struct.icu_75::UInitOnce" = type { %"struct.std::atomic", i32 }
%"struct.icu_75::CollationCacheEntry" = type { %"class.icu_75::SharedObject", %"class.icu_75::Locale", ptr }

; Function Attrs: mustprogress uwtable
define void @_ZN6icu_7517RuleBasedCollatorC2EPKNS_19CollationCacheEntryE(ptr noundef nonnull align 8 dereferenceable(272) %this, ptr noundef %entry1) unnamed_addr #1 align 2 personality ptr @__gxx_personality_v0 {
entry:
  %this.addr = alloca ptr, align 8
  %entry.addr = alloca ptr, align 8
  %exn.slot = alloca ptr, align 8
  %ehselector.slot = alloca i32, align 4
  store ptr %this, ptr %this.addr, align 8
  store ptr %entry1, ptr %entry.addr, align 8
  %this2 = load ptr, ptr %this.addr, align 8
  call void @_ZN6icu_758CollatorC2Ev(ptr noundef nonnull align 8 dereferenceable(8) %this2)
  store ptr getelementptr inbounds ({ [43 x ptr] }, ptr @_ZTVN6icu_7517RuleBasedCollatorE, i32 0, i32 0, i32 2), ptr %this2, align 8
  %data = getelementptr inbounds %"class.icu_75::RuleBasedCollator", ptr %this2, i32 0, i32 1
  %0 = load ptr, ptr %entry.addr, align 8
  %tailoring = getelementptr inbounds %"struct.icu_75::CollationCacheEntry", ptr %0, i32 0, i32 2
  %1 = load ptr, ptr %tailoring, align 8
  %data3 = getelementptr inbounds %"struct.icu_75::CollationTailoring", ptr %1, i32 0, i32 1
  %2 = load ptr, ptr %data3, align 8
  store ptr %2, ptr %data, align 8
  %settings = getelementptr inbounds %"class.icu_75::RuleBasedCollator", ptr %this2, i32 0, i32 2
  %3 = load ptr, ptr %entry.addr, align 8
  %tailoring4 = getelementptr inbounds %"struct.icu_75::CollationCacheEntry", ptr %3, i32 0, i32 2
  %4 = load ptr, ptr %tailoring4, align 8
  %settings5 = getelementptr inbounds %"struct.icu_75::CollationTailoring", ptr %4, i32 0, i32 2
  %5 = load ptr, ptr %settings5, align 8
  store ptr %5, ptr %settings, align 8
  %tailoring6 = getelementptr inbounds %"class.icu_75::RuleBasedCollator", ptr %this2, i32 0, i32 3
  %6 = load ptr, ptr %entry.addr, align 8
  %tailoring7 = getelementptr inbounds %"struct.icu_75::CollationCacheEntry", ptr %6, i32 0, i32 2
  %7 = load ptr, ptr %tailoring7, align 8
  store ptr %7, ptr %tailoring6, align 8
  %cacheEntry = getelementptr inbounds %"class.icu_75::RuleBasedCollator", ptr %this2, i32 0, i32 4
  %8 = load ptr, ptr %entry.addr, align 8
  store ptr %8, ptr %cacheEntry, align 8
  %validLocale = getelementptr inbounds %"class.icu_75::RuleBasedCollator", ptr %this2, i32 0, i32 5
  %9 = load ptr, ptr %entry.addr, align 8
  %validLocale8 = getelementptr inbounds %"struct.icu_75::CollationCacheEntry", ptr %9, i32 0, i32 1
  invoke void @_ZN6icu_756LocaleC1ERKS0_(ptr noundef nonnull align 8 dereferenceable(217) %validLocale, ptr noundef nonnull align 8 dereferenceable(217) %validLocale8)
          to label %invoke.cont unwind label %lpad

invoke.cont:                                      ; preds = %entry
  %explicitlySetAttributes = getelementptr inbounds %"class.icu_75::RuleBasedCollator", ptr %this2, i32 0, i32 6
  store i32 0, ptr %explicitlySetAttributes, align 8
  %actualLocaleIsSameAsValid = getelementptr inbounds %"class.icu_75::RuleBasedCollator", ptr %this2, i32 0, i32 7
  store i8 0, ptr %actualLocaleIsSameAsValid, align 4
  %settings9 = getelementptr inbounds %"class.icu_75::RuleBasedCollator", ptr %this2, i32 0, i32 2
  %10 = load ptr, ptr %settings9, align 8
  invoke void @_ZNK6icu_7512SharedObject6addRefEv(ptr noundef nonnull align 8 dereferenceable(24) %10)
          to label %invoke.cont11 unwind label %lpad10

invoke.cont11:                                    ; preds = %invoke.cont
  %cacheEntry12 = getelementptr inbounds %"class.icu_75::RuleBasedCollator", ptr %this2, i32 0, i32 4
  %11 = load ptr, ptr %cacheEntry12, align 8
  invoke void @_ZNK6icu_7512SharedObject6addRefEv(ptr noundef nonnull align 8 dereferenceable(24) %11)
          to label %invoke.cont13 unwind label %lpad10

invoke.cont13:                                    ; preds = %invoke.cont11
  ret void

lpad:                                             ; preds = %entry
  %12 = landingpad { ptr, i32 }
          cleanup
  %13 = extractvalue { ptr, i32 } %12, 0
  store ptr %13, ptr %exn.slot, align 8
  %14 = extractvalue { ptr, i32 } %12, 1
  store i32 %14, ptr %ehselector.slot, align 4
  br label %ehcleanup

lpad10:                                           ; preds = %invoke.cont11, %invoke.cont
  %15 = landingpad { ptr, i32 }
          cleanup
  %16 = extractvalue { ptr, i32 } %15, 0
  store ptr %16, ptr %exn.slot, align 8
  %17 = extractvalue { ptr, i32 } %15, 1
  store i32 %17, ptr %ehselector.slot, align 4
  call void @_ZN6icu_756LocaleD1Ev(ptr noundef nonnull align 8 dereferenceable(217) %validLocale) #10
  br label %ehcleanup

ehcleanup:                                        ; preds = %lpad10, %lpad
  call void @_ZN6icu_758CollatorD2Ev(ptr noundef nonnull align 8 dereferenceable(8) %this2) #10
  br label %eh.resume

eh.resume:                                        ; preds = %ehcleanup
  %exn = load ptr, ptr %exn.slot, align 8
  %sel = load i32, ptr %ehselector.slot, align 4
  %lpad.val = insertvalue { ptr, i32 } poison, ptr %exn, 0
  %lpad.val14 = insertvalue { ptr, i32 } %lpad.val, i32 %sel, 1
  resume { ptr, i32 } %lpad.val14
}