; Function Attrs: mustprogress uwtable
define void @_ZN6icu_7517RuleBasedCollatorC2EPKNS_19CollationCacheEntryE(ptr noundef nonnull align 8 dereferenceable(272) %this, ptr noundef %entry1) unnamed_addr #1 align 2 personality ptr @__gxx_personality_v0 {
entry:
  tail call void @_ZN6icu_758CollatorC2Ev(ptr noundef nonnull align 8 dereferenceable(8) %this)
  store ptr getelementptr inbounds ({ [43 x ptr] }, ptr @_ZTVN6icu_7517RuleBasedCollatorE, i64 0, i32 0, i64 2), ptr %this, align 8
  %data = getelementptr inbounds i8, ptr %this, i64 8
  %tailoring = getelementptr inbounds i8, ptr %entry1, i64 248
  %0 = load ptr, ptr %tailoring, align 8
  %data3 = getelementptr inbounds i8, ptr %0, i64 24
  %1 = load ptr, ptr %data3, align 8
  store ptr %1, ptr %data, align 8
  %settings = getelementptr inbounds i8, ptr %this, i64 16
  %2 = load ptr, ptr %tailoring, align 8
  %settings5 = getelementptr inbounds i8, ptr %2, i64 32
  %3 = load ptr, ptr %settings5, align 8
  store ptr %3, ptr %settings, align 8
  %tailoring6 = getelementptr inbounds i8, ptr %this, i64 24
  %4 = load ptr, ptr %tailoring, align 8
  store ptr %4, ptr %tailoring6, align 8
  %cacheEntry = getelementptr inbounds i8, ptr %this, i64 32
  store ptr %entry1, ptr %cacheEntry, align 8
  %validLocale = getelementptr inbounds i8, ptr %this, i64 40
  %validLocale8 = getelementptr inbounds i8, ptr %entry1, i64 24
  invoke void @_ZN6icu_756LocaleC1ERKS0_(ptr noundef nonnull align 8 dereferenceable(217) %validLocale, ptr noundef nonnull align 8 dereferenceable(217) %validLocale8)
          to label %invoke.cont unwind label %lpad

invoke.cont:                                      ; preds = %entry
  %explicitlySetAttributes = getelementptr inbounds i8, ptr %this, i64 264
  store i32 0, ptr %explicitlySetAttributes, align 8
  %actualLocaleIsSameAsValid = getelementptr inbounds i8, ptr %this, i64 268
  store i8 0, ptr %actualLocaleIsSameAsValid, align 4
  %5 = load ptr, ptr %settings, align 8
  invoke void @_ZNK6icu_7512SharedObject6addRefEv(ptr noundef nonnull align 8 dereferenceable(24) %5)
          to label %invoke.cont11 unwind label %lpad10

invoke.cont11:                                    ; preds = %invoke.cont
  %6 = load ptr, ptr %cacheEntry, align 8
  invoke void @_ZNK6icu_7512SharedObject6addRefEv(ptr noundef nonnull align 8 dereferenceable(24) %6)
          to label %invoke.cont13 unwind label %lpad10

invoke.cont13:                                    ; preds = %invoke.cont11
  ret void

lpad:                                             ; preds = %entry
  %7 = landingpad { ptr, i32 }
          cleanup
  br label %ehcleanup

lpad10:                                           ; preds = %invoke.cont11, %invoke.cont
  %8 = landingpad { ptr, i32 }
          cleanup
  tail call void @_ZN6icu_756LocaleD1Ev(ptr noundef nonnull align 8 dereferenceable(217) %validLocale) #17
  br label %ehcleanup

ehcleanup:                                        ; preds = %lpad10, %lpad
  %.pn = phi { ptr, i32 } [ %8, %lpad10 ], [ %7, %lpad ]
  tail call void @_ZN6icu_758CollatorD2Ev(ptr noundef nonnull align 8 dereferenceable(8) %this) #17
  resume { ptr, i32 } %.pn
}